target datalayout = "e-m:e-p270:32:32-p271:32:32-p272:64:64-i64:64-i128:128-f80:128-n8:16:32:64-S128"
target triple = "x86_64-pc-linux-gnu"

%struct.epan_column_info = type { ptr, i32, ptr, ptr, ptr, %struct.col_expr_t, i8, ptr }
%struct.col_expr_t = type { ptr, ptr }
%struct.col_item_t = type { i32, ptr, ptr, ptr, i32, ptr, ptr, ptr, ptr, i32, i8, i32 }

@.str.3 = private unnamed_addr constant [40 x i8] c"<?xml version=\221.0\22 encoding=\22utf-8\22?>\0A\00", align 1
@.str.7 = private unnamed_addr constant [10 x i8] c"wireshark\00", align 1
@.str.8 = private unnamed_addr constant [6 x i8] c"4.5.0\00", align 1
@.str.22 = private unnamed_addr constant [36 x i8] c"<psml version=\220\22 creator=\22%s/%s\22>\0A\00", align 1
@.str.23 = private unnamed_addr constant [13 x i8] c"<structure>\0A\00", align 1
@.str.24 = private unnamed_addr constant [10 x i8] c"<section>\00", align 1
@.str.25 = private unnamed_addr constant [12 x i8] c"</section>\0A\00", align 1
@.str.26 = private unnamed_addr constant [15 x i8] c"</structure>\0A\0A\00", align 1

; Function Attrs: null_pointer_is_valid sspstrong uwtable
define internal void @print_escaped_xml(ptr noundef %0, ptr noundef %1) #0 {
  %3 = alloca ptr, align 8
  %4 = alloca ptr, align 8
  %5 = alloca ptr, align 8
  %6 = alloca i32, align 4
  store ptr %0, ptr %3, align 8
  store ptr %1, ptr %4, align 8
  call void @llvm.lifetime.start.p0(i64 8, ptr %5) #15
  %7 = load ptr, ptr %3, align 8
  %8 = icmp eq ptr %7, null
  br i1 %8, label %12, label %9

9:                                                ; preds = %2
  %10 = load ptr, ptr %4, align 8
  %11 = icmp eq ptr %10, null
  br i1 %11, label %12, label %13

12:                                               ; preds = %9, %2
  store i32 1, ptr %6, align 4
  br label %20

13:                                               ; preds = %9
  %14 = load ptr, ptr %4, align 8
  %15 = call ptr @xml_escape(ptr noundef %14)
  store ptr %15, ptr %5, align 8
  %16 = load ptr, ptr %5, align 8
  %17 = load ptr, ptr %3, align 8
  %18 = call i32 @fputs(ptr noundef %16, ptr noundef %17)
  %19 = load ptr, ptr %5, align 8
  call void @g_free(ptr noundef %19)
  store i32 0, ptr %6, align 4
  br label %20

20:                                               ; preds = %13, %12
  call void @llvm.lifetime.end.p0(i64 8, ptr %5) #15
  %21 = load i32, ptr %6, align 4
  switch i32 %21, label %23 [
    i32 0, label %22
    i32 1, label %22
  ]

22:                                               ; preds = %20, %20
  ret void

23:                                               ; preds = %20
  unreachable
}

; Function Attrs: null_pointer_is_valid sspstrong uwtable
define void @write_psml_preamble(ptr noundef %0, ptr noundef %1) #0 {
  %3 = alloca ptr, align 8
  %4 = alloca ptr, align 8
  %5 = alloca i32, align 4
  store ptr %0, ptr %3, align 8
  store ptr %1, ptr %4, align 8
  call void @llvm.lifetime.start.p0(i64 4, ptr %5) #15
  %6 = load ptr, ptr %4, align 8
  %7 = call i32 (ptr, i32, ptr, ...) @__fprintf_chk(ptr noundef %6, i32 noundef 2, ptr noundef @.str.3)
  %8 = load ptr, ptr %4, align 8
  %9 = call i32 (ptr, i32, ptr, ...) @__fprintf_chk(ptr noundef %8, i32 noundef 2, ptr noundef @.str.22, ptr noundef @.str.7, ptr noundef @.str.8)
  %10 = load ptr, ptr %4, align 8
  %11 = call i32 (ptr, i32, ptr, ...) @__fprintf_chk(ptr noundef %10, i32 noundef 2, ptr noundef @.str.23)
  store i32 0, ptr %5, align 4
  br label %12

12:                                               ; preds = %36, %2
  %13 = load i32, ptr %5, align 4
  %14 = load ptr, ptr %3, align 8
  %15 = getelementptr inbounds nuw %struct.epan_column_info, ptr %14, i32 0, i32 1
  %16 = load i32, ptr %15, align 8
  %17 = icmp slt i32 %13, %16
  br i1 %17, label %18, label %39

18:                                               ; preds = %12
  %19 = load i32, ptr %5, align 4
  %20 = call zeroext i1 @get_column_visible(i32 noundef %19)
  br i1 %20, label %22, label %21

21:                                               ; preds = %18
  br label %36

22:                                               ; preds = %18
  %23 = load ptr, ptr %4, align 8
  %24 = call i32 (ptr, i32, ptr, ...) @__fprintf_chk(ptr noundef %23, i32 noundef 2, ptr noundef @.str.24)
  %25 = load ptr, ptr %4, align 8
  %26 = load ptr, ptr %3, align 8
  %27 = getelementptr inbounds nuw %struct.epan_column_info, ptr %26, i32 0, i32 2
  %28 = load ptr, ptr %27, align 8
  %29 = load i32, ptr %5, align 4
  %30 = sext i32 %29 to i64
  %31 = getelementptr %struct.col_item_t, ptr %28, i64 %30
  %32 = getelementptr inbounds nuw %struct.col_item_t, ptr %31, i32 0, i32 2
  %33 = load ptr, ptr %32, align 8
  call void @print_escaped_xml(ptr noundef %25, ptr noundef %33)
  %34 = load ptr, ptr %4, align 8
  %35 = call i32 (ptr, i32, ptr, ...) @__fprintf_chk(ptr noundef %34, i32 noundef 2, ptr noundef @.str.25)
  br label %36

36:                                               ; preds = %22, %21
  %37 = load i32, ptr %5, align 4
  %38 = add i32 %37, 1
  store i32 %38, ptr %5, align 4
  br label %12, !llvm.loop !25

39:                                               ; preds = %12
  %40 = load ptr, ptr %4, align 8
  %41 = call i32 (ptr, i32, ptr, ...) @__fprintf_chk(ptr noundef %40, i32 noundef 2, ptr noundef @.str.26)
  call void @llvm.lifetime.end.p0(i64 4, ptr %5) #15
  ret void
}