; Function Attrs: null_pointer_is_valid sspstrong uwtable
define void @write_psml_preamble(ptr noundef readonly captures(none) %0, ptr noundef %1) local_unnamed_addr #0 {
  %3 = tail call i32 (ptr, i32, ptr, ...) @__fprintf_chk(ptr noundef %1, i32 noundef 2, ptr noundef nonnull @.str.3)
  %4 = tail call i32 (ptr, i32, ptr, ...) @__fprintf_chk(ptr noundef %1, i32 noundef 2, ptr noundef nonnull @.str.22, ptr noundef nonnull @.str.7, ptr noundef nonnull @.str.8)
  %5 = tail call i32 (ptr, i32, ptr, ...) @__fprintf_chk(ptr noundef %1, i32 noundef 2, ptr noundef nonnull @.str.23)
  %6 = getelementptr inbounds nuw i8, ptr %0, i64 8
  %7 = load i32, ptr %6, align 8
  %8 = icmp sgt i32 %7, 0
  br i1 %8, label %.lr.ph, label %._crit_edge

.lr.ph:                                           ; preds = %2
  %9 = getelementptr inbounds nuw i8, ptr %0, i64 16
  %10 = icmp eq ptr %1, null
  br i1 %10, label %.lr.ph.split.us, label %.lr.ph.split

.lr.ph.split.us:                                  ; preds = %.lr.ph, %14
  %.012.us = phi i32 [ %15, %14 ], [ 0, %.lr.ph ]
  %11 = tail call zeroext i1 @get_column_visible(i32 noundef %.012.us)
  br i1 %11, label %print_escaped_xml.exit.us, label %14

print_escaped_xml.exit.us:                        ; preds = %.lr.ph.split.us
  %12 = tail call i32 (ptr, i32, ptr, ...) @__fprintf_chk(ptr noundef null, i32 noundef 2, ptr noundef nonnull @.str.24)
  %13 = tail call i32 (ptr, i32, ptr, ...) @__fprintf_chk(ptr noundef null, i32 noundef 2, ptr noundef nonnull @.str.25)
  br label %14

14:                                               ; preds = %print_escaped_xml.exit.us, %.lr.ph.split.us
  %15 = add nuw nsw i32 %.012.us, 1
  %16 = load i32, ptr %6, align 8
  %17 = icmp slt i32 %15, %16
  br i1 %17, label %.lr.ph.split.us, label %._crit_edge, !llvm.loop !28

.lr.ph.split:                                     ; preds = %.lr.ph, %30
  %indvars.iv = phi i64 [ %indvars.iv.next, %30 ], [ 0, %.lr.ph ]
  %18 = trunc nuw nsw i64 %indvars.iv to i32
  %19 = tail call zeroext i1 @get_column_visible(i32 noundef %18)
  br i1 %19, label %20, label %30

20:                                               ; preds = %.lr.ph.split
  %21 = tail call i32 (ptr, i32, ptr, ...) @__fprintf_chk(ptr noundef nonnull %1, i32 noundef 2, ptr noundef nonnull @.str.24)
  %22 = load ptr, ptr %9, align 8
  %23 = getelementptr %struct.col_item_t, ptr %22, i64 %indvars.iv, i32 2
  %24 = load ptr, ptr %23, align 8
  %25 = icmp eq ptr %24, null
  br i1 %25, label %print_escaped_xml.exit, label %26

26:                                               ; preds = %20
  %27 = tail call ptr @xml_escape(ptr noundef nonnull %24)
  %28 = tail call i32 @fputs(ptr noundef %27, ptr noundef nonnull %1)
  tail call void @g_free(ptr noundef %27)
  br label %print_escaped_xml.exit

print_escaped_xml.exit:                           ; preds = %20, %26
  %29 = tail call i32 (ptr, i32, ptr, ...) @__fprintf_chk(ptr noundef nonnull %1, i32 noundef 2, ptr noundef nonnull @.str.25)
  br label %30

30:                                               ; preds = %.lr.ph.split, %print_escaped_xml.exit
  %indvars.iv.next = add nuw nsw i64 %indvars.iv, 1
  %31 = load i32, ptr %6, align 8
  %32 = sext i32 %31 to i64
  %33 = icmp slt i64 %indvars.iv.next, %32
  br i1 %33, label %.lr.ph.split, label %._crit_edge, !llvm.loop !28

._crit_edge:                                      ; preds = %30, %14, %2
  %34 = tail call i32 (ptr, i32, ptr, ...) @__fprintf_chk(ptr noundef %1, i32 noundef 2, ptr noundef nonnull @.str.26)
  ret void
}